target datalayout = "e-m:e-p270:32:32-p271:32:32-p272:64:64-i64:64-f80:128-n8:16:32:64-S128"
target triple = "x86_64-pc-linux-gnu"

@.str = private unnamed_addr constant [3 x i8] c"%d\00", align 1
@.str.1 = private unnamed_addr constant [6 x i8] c"%d %s\00", align 1
@.str.2 = private unnamed_addr constant [4 x i8] c"%c\0A\00", align 1
@.str.3 = private unnamed_addr constant [4 x i8] c"%d\0A\00", align 1

; Function Attrs: noinline nounwind uwtable
define dso_local void @main() #0 {
  %1 = alloca [1000 x i32], align 16
  %2 = alloca i32, align 4
  %3 = alloca i32, align 4
  %4 = alloca [26 x i32], align 16
  %5 = alloca i32, align 4
  %6 = alloca i32, align 4
  %7 = alloca i32, align 4
  %8 = alloca i32, align 4
  %9 = alloca [1000 x [10 x i8]], align 16
  %10 = alloca i32, align 4
  %11 = bitcast [26 x i32]* %4 to i8*
  call void @llvm.memset.p0i8.i64(i8* align 16 %11, i8 0, i64 104, i1 false)
  store i32 0, i32* %8, align 4
  %12 = call i32 (i8*, ...) @__isoc99_scanf(i8* getelementptr inbounds ([3 x i8], [3 x i8]* @.str, i64 0, i64 0), i32* %10)
  store i32 0, i32* %2, align 4
  br label %13

13:                                               ; preds = %26, %0
  %14 = load i32, i32* %2, align 4
  %15 = load i32, i32* %10, align 4
  %16 = icmp slt i32 %14, %15
  br i1 %16, label %17, label %29

17:                                               ; preds = %13
  %18 = load i32, i32* %2, align 4
  %19 = sext i32 %18 to i64
  %20 = getelementptr inbounds [1000 x i32], [1000 x i32]* %1, i64 0, i64 %19
  %21 = load i32, i32* %2, align 4
  %22 = sext i32 %21 to i64
  %23 = getelementptr inbounds [1000 x [10 x i8]], [1000 x [10 x i8]]* %9, i64 0, i64 %22
  %24 = getelementptr inbounds [10 x i8], [10 x i8]* %23, i64 0, i64 0
  %25 = call i32 (i8*, ...) @__isoc99_scanf(i8* getelementptr inbounds ([6 x i8], [6 x i8]* @.str.1, i64 0, i64 0), i32* %20, i8* %24)
  br label %26

26:                                               ; preds = %17
  %27 = load i32, i32* %2, align 4
  %28 = add nsw i32 %27, 1
  store i32 %28, i32* %2, align 4
  br label %13

29:                                               ; preds = %13
  store i32 0, i32* %2, align 4
  br label %30

30:                                               ; preds = %64, %29
  %31 = load i32, i32* %2, align 4
  %32 = load i32, i32* %10, align 4
  %33 = icmp slt i32 %31, %32
  br i1 %33, label %34, label %67

34:                                               ; preds = %30
  store i32 0, i32* %5, align 4
  store i32 0, i32* %6, align 4
  %35 = load i32, i32* %2, align 4
  %36 = sext i32 %35 to i64
  %37 = getelementptr inbounds [1000 x [10 x i8]], [1000 x [10 x i8]]* %9, i64 0, i64 %36
  %38 = getelementptr inbounds [10 x i8], [10 x i8]* %37, i64 0, i64 0
  %39 = call i64 @strlen(i8* %38) #4
  %40 = trunc i64 %39 to i32
  store i32 %40, i32* %5, align 4
  store i32 0, i32* %3, align 4
  br label %41

41:                                               ; preds = %60, %34
  %42 = load i32, i32* %3, align 4
  %43 = load i32, i32* %5, align 4
  %44 = icmp slt i32 %42, %43
  br i1 %44, label %45, label %63

45:                                               ; preds = %41
  %46 = load i32, i32* %2, align 4
  %47 = sext i32 %46 to i64
  %48 = getelementptr inbounds [1000 x [10 x i8]], [1000 x [10 x i8]]* %9, i64 0, i64 %47
  %49 = load i32, i32* %3, align 4
  %50 = sext i32 %49 to i64
  %51 = getelementptr inbounds [10 x i8], [10 x i8]* %48, i64 0, i64 %50
  %52 = load i8, i8* %51, align 1
  %53 = sext i8 %52 to i32
  store i32 %53, i32* %6, align 4
  %54 = load i32, i32* %6, align 4
  %55 = sub nsw i32 %54, 65
  %56 = sext i32 %55 to i64
  %57 = getelementptr inbounds [26 x i32], [26 x i32]* %4, i64 0, i64 %56
  %58 = load i32, i32* %57, align 4
  %59 = add nsw i32 %58, 1
  store i32 %59, i32* %57, align 4
  br label %60

60:                                               ; preds = %45
  %61 = load i32, i32* %3, align 4
  %62 = add nsw i32 %61, 1
  store i32 %62, i32* %3, align 4
  br label %41

63:                                               ; preds = %41
  br label %64

64:                                               ; preds = %63
  %65 = load i32, i32* %2, align 4
  %66 = add nsw i32 %65, 1
  store i32 %66, i32* %2, align 4
  br label %30

67:                                               ; preds = %30
  %68 = getelementptr inbounds [26 x i32], [26 x i32]* %4, i64 0, i64 0
  %69 = load i32, i32* %68, align 16
  store i32 %69, i32* %7, align 4
  store i32 1, i32* %3, align 4
  br label %70

70:                                               ; preds = %87, %67
  %71 = load i32, i32* %3, align 4
  %72 = icmp slt i32 %71, 26
  br i1 %72, label %73, label %90

73:                                               ; preds = %70
  %74 = load i32, i32* %3, align 4
  %75 = sext i32 %74 to i64
  %76 = getelementptr inbounds [26 x i32], [26 x i32]* %4, i64 0, i64 %75
  %77 = load i32, i32* %76, align 4
  %78 = load i32, i32* %7, align 4
  %79 = icmp sgt i32 %77, %78
  br i1 %79, label %80, label %86

80:                                               ; preds = %73
  %81 = load i32, i32* %3, align 4
  %82 = sext i32 %81 to i64
  %83 = getelementptr inbounds [26 x i32], [26 x i32]* %4, i64 0, i64 %82
  %84 = load i32, i32* %83, align 4
  store i32 %84, i32* %7, align 4
  %85 = load i32, i32* %3, align 4
  store i32 %85, i32* %8, align 4
  br label %86

86:                                               ; preds = %80, %73
  br label %87

87:                                               ; preds = %86
  %88 = load i32, i32* %3, align 4
  %89 = add nsw i32 %88, 1
  store i32 %89, i32* %3, align 4
  br label %70

90:                                               ; preds = %70
  %91 = load i32, i32* %8, align 4
  %92 = add nsw i32 %91, 65
  %93 = call i32 (i8*, ...) @printf(i8* getelementptr inbounds ([4 x i8], [4 x i8]* @.str.2, i64 0, i64 0), i32 %92)
  %94 = load i32, i32* %7, align 4
  %95 = call i32 (i8*, ...) @printf(i8* getelementptr inbounds ([4 x i8], [4 x i8]* @.str.3, i64 0, i64 0), i32 %94)
  store i32 0, i32* %2, align 4
  br label %96

96:                                               ; preds = %127, %90
  %97 = load i32, i32* %2, align 4
  %98 = load i32, i32* %10, align 4
  %99 = icmp slt i32 %97, %98
  br i1 %99, label %100, label %130

100:                                              ; preds = %96
  store i32 0, i32* %3, align 4
  br label %101

101:                                              ; preds = %123, %100
  %102 = load i32, i32* %3, align 4
  %103 = icmp slt i32 %102, 10
  br i1 %103, label %104, label %126

104:                                              ; preds = %101
  %105 = load i32, i32* %2, align 4
  %106 = sext i32 %105 to i64
  %107 = getelementptr inbounds [1000 x [10 x i8]], [1000 x [10 x i8]]* %9, i64 0, i64 %106
  %108 = load i32, i32* %3, align 4
  %109 = sext i32 %108 to i64
  %110 = getelementptr inbounds [10 x i8], [10 x i8]* %107, i64 0, i64 %109
  %111 = load i8, i8* %110, align 1
  %112 = sext i8 %111 to i32
  %113 = load i32, i32* %8, align 4
  %114 = add nsw i32 %113, 65
  %115 = icmp eq i32 %112, %114
  br i1 %115, label %116, label %122

116:                                              ; preds = %104
  %117 = load i32, i32* %2, align 4
  %118 = sext i32 %117 to i64
  %119 = getelementptr inbounds [1000 x i32], [1000 x i32]* %1, i64 0, i64 %118
  %120 = load i32, i32* %119, align 4
  %121 = call i32 (i8*, ...) @printf(i8* getelementptr inbounds ([4 x i8], [4 x i8]* @.str.3, i64 0, i64 0), i32 %120)
  br label %122

122:                                              ; preds = %116, %104
  br label %123

123:                                              ; preds = %122
  %124 = load i32, i32* %3, align 4
  %125 = add nsw i32 %124, 1
  store i32 %125, i32* %3, align 4
  br label %101

126:                                              ; preds = %101
  br label %127

127:                                              ; preds = %126
  %128 = load i32, i32* %2, align 4
  %129 = add nsw i32 %128, 1
  store i32 %129, i32* %2, align 4
  br label %96

130:                                              ; preds = %96
  ret void
}